target datalayout = "e-m:e-p270:32:32-p271:32:32-p272:64:64-i64:64-i128:128-f80:128-n8:16:32:64-S128"
target triple = "x86_64-pc-linux-gnu"

%struct.ZopfliCostModel = type { [704 x float], ptr, i32, ptr, float, i64, %union.anon.1 }
%union.anon.1 = type { [768 x i64], [896 x i8] }

@_ZN13duckdb_brotli16kBrotliLog2TableE = external constant [256 x double], align 16

; Function Attrs: alwaysinline mustprogress nounwind uwtable
define internal noundef double @_ZN13duckdb_brotliL8FastLog2Em(i64 noundef %0) #4 {
  %2 = alloca double, align 8
  %3 = alloca i64, align 8
  store i64 %0, ptr %3, align 8, !tbaa !8
  %4 = load i64, ptr %3, align 8, !tbaa !8
  %5 = icmp ult i64 %4, 256
  br i1 %5, label %6, label %10

6:                                                ; preds = %1
  %7 = load i64, ptr %3, align 8, !tbaa !8
  %8 = getelementptr inbounds nuw [256 x double], ptr @_ZN13duckdb_brotli16kBrotliLog2TableE, i64 0, i64 %7
  %9 = load double, ptr %8, align 8, !tbaa !142
  store double %9, ptr %2, align 8
  br label %14

10:                                               ; preds = %1
  %11 = load i64, ptr %3, align 8, !tbaa !8
  %12 = uitofp i64 %11 to double
  %13 = call double @log2(double noundef %12) #11, !tbaa !17
  store double %13, ptr %2, align 8
  br label %14

14:                                               ; preds = %10, %6
  %15 = load double, ptr %2, align 8
  ret double %15
}

; Function Attrs: mustprogress uwtable
define internal void @_ZL34ZopfliCostModelSetFromLiteralCostsP15ZopfliCostModelmPKhm(ptr noundef %0, i64 noundef %1, ptr noundef %2, i64 noundef %3) #3 {
  %5 = alloca ptr, align 8
  %6 = alloca i64, align 8
  %7 = alloca ptr, align 8
  %8 = alloca i64, align 8
  %9 = alloca ptr, align 8
  %10 = alloca float, align 4
  %11 = alloca ptr, align 8
  %12 = alloca ptr, align 8
  %13 = alloca i64, align 8
  %14 = alloca i64, align 8
  store ptr %0, ptr %5, align 8, !tbaa !68
  store i64 %1, ptr %6, align 8, !tbaa !8
  store ptr %2, ptr %7, align 8, !tbaa !60
  store i64 %3, ptr %8, align 8, !tbaa !8
  call void @llvm.lifetime.start.p0(i64 8, ptr %9) #11
  %15 = load ptr, ptr %5, align 8, !tbaa !68
  %16 = getelementptr inbounds nuw %struct.ZopfliCostModel, ptr %15, i32 0, i32 3
  %17 = load ptr, ptr %16, align 8, !tbaa !81
  store ptr %17, ptr %9, align 8, !tbaa !85
  call void @llvm.lifetime.start.p0(i64 4, ptr %10) #11
  store float 0.000000e+00, ptr %10, align 4, !tbaa !86
  call void @llvm.lifetime.start.p0(i64 8, ptr %11) #11
  %18 = load ptr, ptr %5, align 8, !tbaa !68
  %19 = getelementptr inbounds nuw %struct.ZopfliCostModel, ptr %18, i32 0, i32 1
  %20 = load ptr, ptr %19, align 8, !tbaa !83
  store ptr %20, ptr %11, align 8, !tbaa !85
  call void @llvm.lifetime.start.p0(i64 8, ptr %12) #11
  %21 = load ptr, ptr %5, align 8, !tbaa !68
  %22 = getelementptr inbounds nuw %struct.ZopfliCostModel, ptr %21, i32 0, i32 0
  %23 = getelementptr inbounds [704 x float], ptr %22, i64 0, i64 0
  store ptr %23, ptr %12, align 8, !tbaa !85
  call void @llvm.lifetime.start.p0(i64 8, ptr %13) #11
  %24 = load ptr, ptr %5, align 8, !tbaa !68
  %25 = getelementptr inbounds nuw %struct.ZopfliCostModel, ptr %24, i32 0, i32 5
  %26 = load i64, ptr %25, align 8, !tbaa !77
  store i64 %26, ptr %13, align 8, !tbaa !8
  call void @llvm.lifetime.start.p0(i64 8, ptr %14) #11
  %27 = load i64, ptr %6, align 8, !tbaa !8
  %28 = load i64, ptr %13, align 8, !tbaa !8
  %29 = load i64, ptr %8, align 8, !tbaa !8
  %30 = load ptr, ptr %7, align 8, !tbaa !60
  %31 = load ptr, ptr %5, align 8, !tbaa !68
  %32 = getelementptr inbounds nuw %struct.ZopfliCostModel, ptr %31, i32 0, i32 6
  %33 = getelementptr inbounds [768 x i64], ptr %32, i64 0, i64 0
  %34 = load ptr, ptr %9, align 8, !tbaa !85
  %35 = getelementptr inbounds float, ptr %34, i64 1
  call void @_ZN13duckdb_brotli33BrotliEstimateBitCostsForLiteralsEmmmPKhPmPf(i64 noundef %27, i64 noundef %28, i64 noundef %29, ptr noundef %30, ptr noundef %33, ptr noundef %35)
  %36 = load ptr, ptr %9, align 8, !tbaa !85
  %37 = getelementptr inbounds float, ptr %36, i64 0
  store float 0.000000e+00, ptr %37, align 4, !tbaa !86
  store i64 0, ptr %14, align 8, !tbaa !8
  br label %38

38:                                               ; preds = %72, %4
  %39 = load i64, ptr %14, align 8, !tbaa !8
  %40 = load i64, ptr %13, align 8, !tbaa !8
  %41 = icmp ult i64 %39, %40
  br i1 %41, label %42, label %75

42:                                               ; preds = %38
  %43 = load ptr, ptr %9, align 8, !tbaa !85
  %44 = load i64, ptr %14, align 8, !tbaa !8
  %45 = add i64 %44, 1
  %46 = getelementptr inbounds nuw float, ptr %43, i64 %45
  %47 = load float, ptr %46, align 4, !tbaa !86
  %48 = load float, ptr %10, align 4, !tbaa !86
  %49 = fadd float %48, %47
  store float %49, ptr %10, align 4, !tbaa !86
  %50 = load ptr, ptr %9, align 8, !tbaa !85
  %51 = load i64, ptr %14, align 8, !tbaa !8
  %52 = getelementptr inbounds nuw float, ptr %50, i64 %51
  %53 = load float, ptr %52, align 4, !tbaa !86
  %54 = load float, ptr %10, align 4, !tbaa !86
  %55 = fadd float %53, %54
  %56 = load ptr, ptr %9, align 8, !tbaa !85
  %57 = load i64, ptr %14, align 8, !tbaa !8
  %58 = add i64 %57, 1
  %59 = getelementptr inbounds nuw float, ptr %56, i64 %58
  store float %55, ptr %59, align 4, !tbaa !86
  %60 = load ptr, ptr %9, align 8, !tbaa !85
  %61 = load i64, ptr %14, align 8, !tbaa !8
  %62 = add i64 %61, 1
  %63 = getelementptr inbounds nuw float, ptr %60, i64 %62
  %64 = load float, ptr %63, align 4, !tbaa !86
  %65 = load ptr, ptr %9, align 8, !tbaa !85
  %66 = load i64, ptr %14, align 8, !tbaa !8
  %67 = getelementptr inbounds nuw float, ptr %65, i64 %66
  %68 = load float, ptr %67, align 4, !tbaa !86
  %69 = fsub float %64, %68
  %70 = load float, ptr %10, align 4, !tbaa !86
  %71 = fsub float %70, %69
  store float %71, ptr %10, align 4, !tbaa !86
  br label %72

72:                                               ; preds = %42
  %73 = load i64, ptr %14, align 8, !tbaa !8
  %74 = add i64 %73, 1
  store i64 %74, ptr %14, align 8, !tbaa !8
  br label %38, !llvm.loop !87

75:                                               ; preds = %38
  store i64 0, ptr %14, align 8, !tbaa !8
  br label %76

76:                                               ; preds = %89, %75
  %77 = load i64, ptr %14, align 8, !tbaa !8
  %78 = icmp ult i64 %77, 704
  br i1 %78, label %79, label %92

79:                                               ; preds = %76
  %80 = load i64, ptr %14, align 8, !tbaa !8
  %81 = trunc i64 %80 to i32
  %82 = add i32 11, %81
  %83 = zext i32 %82 to i64
  %84 = call noundef double @_ZN13duckdb_brotliL8FastLog2Em(i64 noundef %83)
  %85 = fptrunc double %84 to float
  %86 = load ptr, ptr %12, align 8, !tbaa !85
  %87 = load i64, ptr %14, align 8, !tbaa !8
  %88 = getelementptr inbounds nuw float, ptr %86, i64 %87
  store float %85, ptr %88, align 4, !tbaa !86
  br label %89

89:                                               ; preds = %79
  %90 = load i64, ptr %14, align 8, !tbaa !8
  %91 = add i64 %90, 1
  store i64 %91, ptr %14, align 8, !tbaa !8
  br label %76, !llvm.loop !88

92:                                               ; preds = %76
  store i64 0, ptr %14, align 8, !tbaa !8
  br label %93

93:                                               ; preds = %110, %92
  %94 = load i64, ptr %14, align 8, !tbaa !8
  %95 = load ptr, ptr %5, align 8, !tbaa !68
  %96 = getelementptr inbounds nuw %struct.ZopfliCostModel, ptr %95, i32 0, i32 2
  %97 = load i32, ptr %96, align 8, !tbaa !84
  %98 = zext i32 %97 to i64
  %99 = icmp ult i64 %94, %98
  br i1 %99, label %100, label %113

100:                                              ; preds = %93
  %101 = load i64, ptr %14, align 8, !tbaa !8
  %102 = trunc i64 %101 to i32
  %103 = add i32 20, %102
  %104 = zext i32 %103 to i64
  %105 = call noundef double @_ZN13duckdb_brotliL8FastLog2Em(i64 noundef %104)
  %106 = fptrunc double %105 to float
  %107 = load ptr, ptr %11, align 8, !tbaa !85
  %108 = load i64, ptr %14, align 8, !tbaa !8
  %109 = getelementptr inbounds nuw float, ptr %107, i64 %108
  store float %106, ptr %109, align 4, !tbaa !86
  br label %110

110:                                              ; preds = %100
  %111 = load i64, ptr %14, align 8, !tbaa !8
  %112 = add i64 %111, 1
  store i64 %112, ptr %14, align 8, !tbaa !8
  br label %93, !llvm.loop !89

113:                                              ; preds = %93
  %114 = call noundef double @_ZN13duckdb_brotliL8FastLog2Em(i64 noundef 11)
  %115 = fptrunc double %114 to float
  %116 = load ptr, ptr %5, align 8, !tbaa !68
  %117 = getelementptr inbounds nuw %struct.ZopfliCostModel, ptr %116, i32 0, i32 4
  store float %115, ptr %117, align 8, !tbaa !90
  call void @llvm.lifetime.end.p0(i64 8, ptr %14) #11
  call void @llvm.lifetime.end.p0(i64 8, ptr %13) #11
  call void @llvm.lifetime.end.p0(i64 8, ptr %12) #11
  call void @llvm.lifetime.end.p0(i64 8, ptr %11) #11
  call void @llvm.lifetime.end.p0(i64 4, ptr %10) #11
  call void @llvm.lifetime.end.p0(i64 8, ptr %9) #11
  ret void
}